; Function Attrs: nounwind uwtable
define dso_local noundef i64 @bthandler(ptr noundef readnone captures(none) %0) local_unnamed_addr #0 {
  %2 = tail call noundef ptr @palloc0(i64 noundef 240) #8
  store i32 437, ptr %2, align 4
  %3 = getelementptr inbounds nuw i8, ptr %2, i64 4
  store i16 5, ptr %3, align 4
  %4 = getelementptr inbounds nuw i8, ptr %2, i64 6
  store i16 5, ptr %4, align 2
  %5 = getelementptr inbounds nuw i8, ptr %2, i64 8
  store i16 5, ptr %5, align 8
  %6 = getelementptr inbounds nuw i8, ptr %2, i64 10
  store i8 1, ptr %6, align 2
  %7 = getelementptr inbounds nuw i8, ptr %2, i64 11
  store i8 0, ptr %7, align 1
  %8 = getelementptr inbounds nuw i8, ptr %2, i64 12
  %9 = getelementptr inbounds nuw i8, ptr %2, i64 18
  tail call void @llvm.memset.p0.i64(ptr noundef nonnull align 4 dereferenceable(6) %8, i8 1, i64 6, i1 false)
  store i8 0, ptr %9, align 2
  %10 = getelementptr inbounds nuw i8, ptr %2, i64 19
  %11 = getelementptr inbounds nuw i8, ptr %2, i64 24
  tail call void @llvm.memset.p0.i64(ptr noundef nonnull align 1 dereferenceable(5) %10, i8 1, i64 5, i1 false)
  store i8 0, ptr %11, align 8
  %12 = getelementptr inbounds nuw i8, ptr %2, i64 25
  store i8 0, ptr %12, align 1
  %13 = getelementptr inbounds nuw i8, ptr %2, i64 26
  store i8 3, ptr %13, align 2
  %14 = getelementptr inbounds nuw i8, ptr %2, i64 28
  store i32 0, ptr %14, align 4
  %15 = getelementptr inbounds nuw i8, ptr %2, i64 32
  store ptr @btbuild, ptr %15, align 8
  %16 = getelementptr inbounds nuw i8, ptr %2, i64 40
  store ptr @btbuildempty, ptr %16, align 8
  %17 = getelementptr inbounds nuw i8, ptr %2, i64 48
  store ptr @btinsert, ptr %17, align 8
  %18 = getelementptr inbounds nuw i8, ptr %2, i64 56
  store ptr null, ptr %18, align 8
  %19 = getelementptr inbounds nuw i8, ptr %2, i64 64
  store ptr @btbulkdelete, ptr %19, align 8
  %20 = getelementptr inbounds nuw i8, ptr %2, i64 72
  store ptr @btvacuumcleanup, ptr %20, align 8
  %21 = getelementptr inbounds nuw i8, ptr %2, i64 80
  store ptr @btcanreturn, ptr %21, align 8
  %22 = getelementptr inbounds nuw i8, ptr %2, i64 88
  store ptr @btcostestimate, ptr %22, align 8
  %23 = getelementptr inbounds nuw i8, ptr %2, i64 96
  store ptr @btgettreeheight, ptr %23, align 8
  %24 = getelementptr inbounds nuw i8, ptr %2, i64 104
  store ptr @btoptions, ptr %24, align 8
  %25 = getelementptr inbounds nuw i8, ptr %2, i64 112
  store ptr @btproperty, ptr %25, align 8
  %26 = getelementptr inbounds nuw i8, ptr %2, i64 120
  store ptr @btbuildphasename, ptr %26, align 8
  %27 = getelementptr inbounds nuw i8, ptr %2, i64 128
  store ptr @btvalidate, ptr %27, align 8
  %28 = getelementptr inbounds nuw i8, ptr %2, i64 136
  store ptr @btadjustmembers, ptr %28, align 8
  %29 = getelementptr inbounds nuw i8, ptr %2, i64 144
  store ptr @btbeginscan, ptr %29, align 8
  %30 = getelementptr inbounds nuw i8, ptr %2, i64 152
  store ptr @btrescan, ptr %30, align 8
  %31 = getelementptr inbounds nuw i8, ptr %2, i64 160
  store ptr @btgettuple, ptr %31, align 8
  %32 = getelementptr inbounds nuw i8, ptr %2, i64 168
  store ptr @btgetbitmap, ptr %32, align 8
  %33 = getelementptr inbounds nuw i8, ptr %2, i64 176
  store ptr @btendscan, ptr %33, align 8
  %34 = getelementptr inbounds nuw i8, ptr %2, i64 184
  store ptr @btmarkpos, ptr %34, align 8
  %35 = getelementptr inbounds nuw i8, ptr %2, i64 192
  store ptr @btrestrpos, ptr %35, align 8
  %36 = getelementptr inbounds nuw i8, ptr %2, i64 200
  store ptr @btestimateparallelscan, ptr %36, align 8
  %37 = getelementptr inbounds nuw i8, ptr %2, i64 208
  store ptr @btinitparallelscan, ptr %37, align 8
  %38 = getelementptr inbounds nuw i8, ptr %2, i64 216
  store ptr @btparallelrescan, ptr %38, align 8
  %39 = getelementptr inbounds nuw i8, ptr %2, i64 224
  store ptr @bttranslatestrategy, ptr %39, align 8
  %40 = getelementptr inbounds nuw i8, ptr %2, i64 232
  store ptr @bttranslatecmptype, ptr %40, align 8
  %41 = ptrtoint ptr %2 to i64
  ret i64 %41
}